target datalayout = "e-m:e-p270:32:32-p271:32:32-p272:64:64-i64:64-i128:128-f80:128-n8:16:32:64-S128"
target triple = "x86_64-pc-linux-gnu"

%struct.bio_st = type { ptr, ptr, ptr, ptr, ptr, i32, i32, i32, i32, i32, ptr, ptr, ptr, %struct.CRYPTO_REF_COUNT, i64, i64, %struct.crypto_ex_data_st }
%struct.CRYPTO_REF_COUNT = type { i32 }
%struct.crypto_ex_data_st = type { ptr, ptr }

; Function Attrs: nounwind uwtable
define internal i32 @nbiof_read(ptr noundef %0, ptr noundef %1, i32 noundef %2) #0 {
  %4 = alloca i32, align 4
  %5 = alloca ptr, align 8
  %6 = alloca ptr, align 8
  %7 = alloca i32, align 4
  %8 = alloca i32, align 4
  %9 = alloca i32, align 4
  %10 = alloca i8, align 1
  %11 = alloca i32, align 4
  store ptr %0, ptr %5, align 8, !tbaa !3
  store ptr %1, ptr %6, align 8, !tbaa !8
  store i32 %2, ptr %7, align 4, !tbaa !10
  call void @llvm.lifetime.start.p0(i64 4, ptr %8) #3
  store i32 0, ptr %8, align 4, !tbaa !10
  call void @llvm.lifetime.start.p0(i64 4, ptr %9) #3
  call void @llvm.lifetime.start.p0(i64 1, ptr %10) #3
  %12 = load ptr, ptr %6, align 8, !tbaa !8
  %13 = icmp eq ptr %12, null
  br i1 %13, label %14, label %15

14:                                               ; preds = %3
  store i32 0, ptr %4, align 4
  store i32 1, ptr %11, align 4
  br label %54

15:                                               ; preds = %3
  %16 = load ptr, ptr %5, align 8, !tbaa !3
  %17 = getelementptr inbounds nuw %struct.bio_st, ptr %16, i32 0, i32 11
  %18 = load ptr, ptr %17, align 8, !tbaa !12
  %19 = icmp eq ptr %18, null
  br i1 %19, label %20, label %21

20:                                               ; preds = %15
  store i32 0, ptr %4, align 4
  store i32 1, ptr %11, align 4
  br label %54

21:                                               ; preds = %15
  %22 = load ptr, ptr %5, align 8, !tbaa !3
  call void @BIO_clear_flags(ptr noundef %22, i32 noundef 15)
  %23 = call i32 @RAND_priv_bytes(ptr noundef %10, i32 noundef 1)
  %24 = icmp sle i32 %23, 0
  br i1 %24, label %25, label %26

25:                                               ; preds = %21
  store i32 -1, ptr %4, align 4
  store i32 1, ptr %11, align 4
  br label %54

26:                                               ; preds = %21
  %27 = load i8, ptr %10, align 1, !tbaa !25
  %28 = zext i8 %27 to i32
  %29 = and i32 %28, 7
  store i32 %29, ptr %9, align 4, !tbaa !10
  %30 = load i32, ptr %7, align 4, !tbaa !10
  %31 = load i32, ptr %9, align 4, !tbaa !10
  %32 = icmp sgt i32 %30, %31
  br i1 %32, label %33, label %35

33:                                               ; preds = %26
  %34 = load i32, ptr %9, align 4, !tbaa !10
  store i32 %34, ptr %7, align 4, !tbaa !10
  br label %35

35:                                               ; preds = %33, %26
  %36 = load i32, ptr %9, align 4, !tbaa !10
  %37 = icmp eq i32 %36, 0
  br i1 %37, label %38, label %40

38:                                               ; preds = %35
  store i32 -1, ptr %8, align 4, !tbaa !10
  %39 = load ptr, ptr %5, align 8, !tbaa !3
  call void @BIO_set_flags(ptr noundef %39, i32 noundef 9)
  br label %52

40:                                               ; preds = %35
  %41 = load ptr, ptr %5, align 8, !tbaa !3
  %42 = getelementptr inbounds nuw %struct.bio_st, ptr %41, i32 0, i32 11
  %43 = load ptr, ptr %42, align 8, !tbaa !12
  %44 = load ptr, ptr %6, align 8, !tbaa !8
  %45 = load i32, ptr %7, align 4, !tbaa !10
  %46 = call i32 @BIO_read(ptr noundef %43, ptr noundef %44, i32 noundef %45)
  store i32 %46, ptr %8, align 4, !tbaa !10
  %47 = load i32, ptr %8, align 4, !tbaa !10
  %48 = icmp slt i32 %47, 0
  br i1 %48, label %49, label %51

49:                                               ; preds = %40
  %50 = load ptr, ptr %5, align 8, !tbaa !3
  call void @BIO_copy_next_retry(ptr noundef %50)
  br label %51

51:                                               ; preds = %49, %40
  br label %52

52:                                               ; preds = %51, %38
  %53 = load i32, ptr %8, align 4, !tbaa !10
  store i32 %53, ptr %4, align 4
  store i32 1, ptr %11, align 4
  br label %54

54:                                               ; preds = %52, %25, %20, %14
  call void @llvm.lifetime.end.p0(i64 1, ptr %10) #3
  call void @llvm.lifetime.end.p0(i64 4, ptr %9) #3
  call void @llvm.lifetime.end.p0(i64 4, ptr %8) #3
  %55 = load i32, ptr %4, align 4
  ret i32 %55
}