; Function Attrs: nounwind uwtable
define internal i32 @nbiof_read(ptr noundef %0, ptr noundef %1, i32 noundef %2) #2 {
  %4 = alloca i8, align 1
  call void @llvm.lifetime.start.p0(i64 1, ptr nonnull %4) #5
  %5 = icmp eq ptr %1, null
  br i1 %5, label %24, label %6

6:                                                ; preds = %3
  %7 = getelementptr inbounds nuw i8, ptr %0, i64 72
  %8 = load ptr, ptr %7, align 8, !tbaa !3
  %9 = icmp eq ptr %8, null
  br i1 %9, label %24, label %10

10:                                               ; preds = %6
  tail call void @BIO_clear_flags(ptr noundef nonnull %0, i32 noundef 15) #5
  %11 = call i32 @RAND_priv_bytes(ptr noundef nonnull %4, i32 noundef 1) #5
  %12 = icmp slt i32 %11, 1
  br i1 %12, label %24, label %13

13:                                               ; preds = %10
  %14 = load i8, ptr %4, align 1, !tbaa !20
  %15 = and i8 %14, 7
  %16 = icmp eq i8 %15, 0
  br i1 %16, label %17, label %18

17:                                               ; preds = %13
  call void @BIO_set_flags(ptr noundef nonnull %0, i32 noundef 9) #5
  br label %24

18:                                               ; preds = %13
  %19 = zext nneg i8 %15 to i32
  %spec.select = call i32 @llvm.smin.i32(i32 %2, i32 %19)
  %20 = load ptr, ptr %7, align 8, !tbaa !3
  %21 = call i32 @BIO_read(ptr noundef %20, ptr noundef nonnull %1, i32 noundef %spec.select) #5
  %22 = icmp slt i32 %21, 0
  br i1 %22, label %23, label %24

23:                                               ; preds = %18
  call void @BIO_copy_next_retry(ptr noundef nonnull %0) #5
  br label %24

24:                                               ; preds = %17, %23, %18, %10, %6, %3
  %.0 = phi i32 [ 0, %3 ], [ 0, %6 ], [ -1, %10 ], [ -1, %17 ], [ %21, %23 ], [ %21, %18 ]
  call void @llvm.lifetime.end.p0(i64 1, ptr nonnull %4) #5
  ret i32 %.0
}